; Function Attrs: mustprogress uwtable
define hidden void @_ZNK6google8protobuf10TextFormat21FastFieldValuePrinter9PrintEnumEiRKNSt7__cxx1112basic_stringIcSt11char_traitsIcESaIcEEEPNS1_17BaseTextGeneratorE(ptr nonnull readnone align 8 captures(none) %0, i32 %1, ptr noundef nonnull readonly align 8 captures(none) dereferenceable(32) %2, ptr noundef %3) unnamed_addr #3 align 2 {
  %5 = load ptr, ptr %2, align 8, !tbaa !48
  %6 = getelementptr inbounds nuw i8, ptr %2, i64 8
  %7 = load i64, ptr %6, align 8, !tbaa !9
  %8 = load ptr, ptr %3, align 8, !tbaa !24
  %9 = getelementptr inbounds nuw i8, ptr %8, i64 40
  %10 = load ptr, ptr %9, align 8
  tail call void %10(ptr noundef nonnull align 8 dereferenceable(8) %3, ptr noundef %5, i64 noundef %7)
  ret void
}